target datalayout = "e-m:e-p270:32:32-p271:32:32-p272:64:64-i64:64-i128:128-f80:128-n8:16:32:64-S128"
target triple = "x86_64-pc-linux-gnu"

@hf_sysact_unused_buffer = internal global i32 0, align 4
@ett_dcom_scmrespinfo = internal global i32 0, align 4
@.str.173 = private unnamed_addr constant [4 x i8] c"Ptr\00", align 1
@.str.174 = private unnamed_addr constant [17 x i8] c"RemoteRequestPtr\00", align 1
@.str.181 = private unnamed_addr constant [13 x i8] c"ScmReplyInfo\00", align 1

; Function Attrs: null_pointer_is_valid sspstrong uwtable
define internal i32 @dissect_dcom_ScmReplyInfo(ptr noundef %0, i32 noundef %1, ptr noundef %2, ptr noundef %3, ptr noundef %4, ptr noundef %5, i32 noundef %6) #0 {
  %8 = alloca ptr, align 8
  %9 = alloca i32, align 4
  %10 = alloca ptr, align 8
  %11 = alloca ptr, align 8
  %12 = alloca ptr, align 8
  %13 = alloca ptr, align 8
  %14 = alloca i32, align 4
  %15 = alloca ptr, align 8
  %16 = alloca i32, align 4
  %17 = alloca i32, align 4
  store ptr %0, ptr %8, align 8
  store i32 %1, ptr %9, align 4
  store ptr %2, ptr %10, align 8
  store ptr %3, ptr %11, align 8
  store ptr %4, ptr %12, align 8
  store ptr %5, ptr %13, align 8
  store i32 %6, ptr %14, align 4
  call void @llvm.lifetime.start.p0(i64 8, ptr %15) #5
  call void @llvm.lifetime.start.p0(i64 4, ptr %16) #5
  call void @llvm.lifetime.start.p0(i64 4, ptr %17) #5
  %18 = load i32, ptr %9, align 4
  store i32 %18, ptr %16, align 4
  %19 = load i32, ptr %14, align 4
  %20 = icmp sle i32 %19, 0
  br i1 %20, label %21, label %22

21:                                               ; preds = %7
  store i32 -1, ptr %14, align 4
  br label %22

22:                                               ; preds = %21, %7
  %23 = load ptr, ptr %11, align 8
  %24 = load ptr, ptr %8, align 8
  %25 = load i32, ptr %9, align 4
  %26 = load i32, ptr %14, align 4
  %27 = load i32, ptr @ett_dcom_scmrespinfo, align 4
  %28 = call ptr @proto_tree_add_subtree(ptr noundef %23, ptr noundef %24, i32 noundef %25, i32 noundef %26, i32 noundef %27, ptr noundef null, ptr noundef @.str.181)
  store ptr %28, ptr %15, align 8
  %29 = load ptr, ptr %8, align 8
  %30 = load i32, ptr %9, align 4
  %31 = load ptr, ptr %10, align 8
  %32 = load ptr, ptr %15, align 8
  %33 = load ptr, ptr %12, align 8
  %34 = load ptr, ptr %13, align 8
  %35 = call i32 @dissect_TypeSzCommPrivHdr(ptr noundef %29, i32 noundef %30, ptr noundef %31, ptr noundef %32, ptr noundef %33, ptr noundef %34)
  store i32 %35, ptr %9, align 4
  %36 = load ptr, ptr %8, align 8
  %37 = load i32, ptr %9, align 4
  %38 = load ptr, ptr %10, align 8
  %39 = load ptr, ptr %15, align 8
  %40 = load ptr, ptr %12, align 8
  %41 = load ptr, ptr %13, align 8
  %42 = call i32 @dissect_ndr_embedded_pointer(ptr noundef %36, i32 noundef %37, ptr noundef %38, ptr noundef %39, ptr noundef %40, ptr noundef %41, ptr noundef null, i32 noundef 2, ptr noundef @.str.173, i32 noundef -1)
  store i32 %42, ptr %9, align 4
  %43 = load ptr, ptr %8, align 8
  %44 = load i32, ptr %9, align 4
  %45 = load ptr, ptr %10, align 8
  %46 = load ptr, ptr %15, align 8
  %47 = load ptr, ptr %12, align 8
  %48 = load ptr, ptr %13, align 8
  %49 = call i32 @dissect_ndr_embedded_pointer(ptr noundef %43, i32 noundef %44, ptr noundef %45, ptr noundef %46, ptr noundef %47, ptr noundef %48, ptr noundef @dissect_dcom_customREMOTE_REPLY_SCM_INFO, i32 noundef 2, ptr noundef @.str.174, i32 noundef -1)
  store i32 %49, ptr %9, align 4
  %50 = load ptr, ptr %10, align 8
  %51 = load ptr, ptr %8, align 8
  %52 = load i32, ptr %9, align 4
  %53 = load ptr, ptr %12, align 8
  %54 = load ptr, ptr %13, align 8
  %55 = call i32 @dissect_deferred_pointers(ptr noundef %50, ptr noundef %51, i32 noundef %52, ptr noundef %53, ptr noundef %54)
  store i32 %55, ptr %9, align 4
  %56 = load i32, ptr %9, align 4
  %57 = load i32, ptr %16, align 4
  %58 = sub i32 %56, %57
  store i32 %58, ptr %17, align 4
  %59 = load i32, ptr %14, align 4
  %60 = load i32, ptr %17, align 4
  %61 = icmp slt i32 %59, %60
  br i1 %61, label %62, label %64

62:                                               ; preds = %22
  %63 = load i32, ptr %17, align 4
  store i32 %63, ptr %14, align 4
  br label %78

64:                                               ; preds = %22
  %65 = load i32, ptr %14, align 4
  %66 = load i32, ptr %17, align 4
  %67 = icmp sgt i32 %65, %66
  br i1 %67, label %68, label %77

68:                                               ; preds = %64
  %69 = load ptr, ptr %15, align 8
  %70 = load i32, ptr @hf_sysact_unused_buffer, align 4
  %71 = load ptr, ptr %8, align 8
  %72 = load i32, ptr %9, align 4
  %73 = load i32, ptr %14, align 4
  %74 = load i32, ptr %17, align 4
  %75 = sub i32 %73, %74
  %76 = call ptr @proto_tree_add_item(ptr noundef %69, i32 noundef %70, ptr noundef %71, i32 noundef %72, i32 noundef %75, i32 noundef 0)
  br label %77

77:                                               ; preds = %68, %64
  br label %78

78:                                               ; preds = %77, %62
  %79 = load i32, ptr %16, align 4
  %80 = load i32, ptr %14, align 4
  %81 = add i32 %79, %80
  store i32 %81, ptr %9, align 4
  %82 = load i32, ptr %9, align 4
  call void @llvm.lifetime.end.p0(i64 4, ptr %17) #5
  call void @llvm.lifetime.end.p0(i64 4, ptr %16) #5
  call void @llvm.lifetime.end.p0(i64 8, ptr %15) #5
  ret i32 %82
}