; Function Attrs: null_pointer_is_valid sspstrong uwtable
define internal i32 @dissect_dcom_ScmReplyInfo(ptr noundef %0, i32 noundef %1, ptr noundef %2, ptr noundef %3, ptr noundef %4, ptr noundef %5, i32 noundef %6) #0 {
  %8 = icmp slt i32 %6, 1
  %spec.store.select = select i1 %8, i32 -1, i32 %6
  %9 = load i32, ptr @ett_dcom_scmrespinfo, align 4
  %10 = tail call ptr @proto_tree_add_subtree(ptr noundef %3, ptr noundef %0, i32 noundef %1, i32 noundef %spec.store.select, i32 noundef %9, ptr noundef null, ptr noundef nonnull @.str.181)
  %11 = tail call fastcc i32 @dissect_TypeSzCommPrivHdr(ptr noundef %0, i32 noundef %1, ptr noundef %2, ptr noundef %10, ptr noundef %4, ptr noundef %5)
  %12 = tail call i32 @dissect_ndr_embedded_pointer(ptr noundef %0, i32 noundef %11, ptr noundef %2, ptr noundef %10, ptr noundef %4, ptr noundef %5, ptr noundef null, i32 noundef 2, ptr noundef nonnull @.str.173, i32 noundef -1)
  %13 = tail call i32 @dissect_ndr_embedded_pointer(ptr noundef %0, i32 noundef %12, ptr noundef %2, ptr noundef %10, ptr noundef %4, ptr noundef %5, ptr noundef nonnull @dissect_dcom_customREMOTE_REPLY_SCM_INFO, i32 noundef 2, ptr noundef nonnull @.str.174, i32 noundef -1)
  %14 = tail call i32 @dissect_deferred_pointers(ptr noundef %2, ptr noundef %0, i32 noundef %13, ptr noundef %4, ptr noundef %5)
  %15 = sub i32 %14, %1
  %16 = icmp slt i32 %spec.store.select, %15
  br i1 %16, label %23, label %17

17:                                               ; preds = %7
  %18 = icmp sgt i32 %spec.store.select, %15
  br i1 %18, label %19, label %23

19:                                               ; preds = %17
  %20 = load i32, ptr @hf_sysact_unused_buffer, align 4
  %21 = sub i32 %spec.store.select, %15
  %22 = tail call ptr @proto_tree_add_item(ptr noundef %10, i32 noundef %20, ptr noundef %0, i32 noundef %14, i32 noundef %21, i32 noundef 0)
  br label %23

23:                                               ; preds = %7, %17, %19
  %.0 = phi i32 [ %spec.store.select, %19 ], [ %spec.store.select, %17 ], [ %15, %7 ]
  %24 = add i32 %.0, %1
  ret i32 %24
}